; Function Attrs: nounwind uwtable
define internal void @zend_file_handle_dtor(ptr noundef captures(none) %0) #0 {
  %2 = getelementptr inbounds nuw i8, ptr %0, i64 56
  %3 = load i8, ptr %2, align 8, !tbaa !4
  switch i8 %3, label %14 [
    i8 1, label %4
    i8 2, label %8
  ]

4:                                                ; preds = %1
  %5 = load ptr, ptr %0, align 8, !tbaa !13
  %.not24 = icmp eq ptr %5, null
  br i1 %.not24, label %14, label %6

6:                                                ; preds = %4
  %7 = tail call i32 @fclose(ptr noundef nonnull %5)
  br label %.sink.split

8:                                                ; preds = %1
  %9 = getelementptr inbounds nuw i8, ptr %0, i64 32
  %10 = load ptr, ptr %9, align 8, !tbaa !13
  %.not = icmp eq ptr %10, null
  br i1 %.not, label %.sink.split, label %11

11:                                               ; preds = %8
  %12 = load ptr, ptr %0, align 8, !tbaa !13
  %.not23 = icmp eq ptr %12, null
  br i1 %.not23, label %.sink.split, label %13

13:                                               ; preds = %11
  tail call void %10(ptr noundef nonnull %12) #16
  br label %.sink.split

.sink.split:                                      ; preds = %8, %11, %13, %6
  store ptr null, ptr %0, align 8, !tbaa !13
  br label %14

14:                                               ; preds = %.sink.split, %4, %1
  %15 = getelementptr inbounds nuw i8, ptr %0, i64 48
  %16 = load ptr, ptr %15, align 8, !tbaa !33
  %.not25 = icmp eq ptr %16, null
  br i1 %.not25, label %27, label %17

17:                                               ; preds = %14
  %18 = getelementptr inbounds nuw i8, ptr %16, i64 4
  %19 = load i32, ptr %18, align 4, !tbaa !13
  %20 = and i32 %19, 64
  %.not.i = icmp eq i32 %20, 0
  br i1 %.not.i, label %21, label %zend_string_release_ex.exit

21:                                               ; preds = %17
  %22 = load i32, ptr %16, align 4, !tbaa !14
  %23 = icmp ne i32 %22, 0
  tail call void @llvm.assume(i1 %23)
  %24 = add i32 %22, -1
  store i32 %24, ptr %16, align 4, !tbaa !14
  %25 = icmp eq i32 %24, 0
  br i1 %25, label %26, label %zend_string_release_ex.exit

26:                                               ; preds = %21
  tail call void @_efree(ptr noundef nonnull %16) #16
  br label %zend_string_release_ex.exit

zend_string_release_ex.exit:                      ; preds = %17, %21, %26
  store ptr null, ptr %15, align 8, !tbaa !33
  br label %27

27:                                               ; preds = %zend_string_release_ex.exit, %14
  %28 = getelementptr inbounds nuw i8, ptr %0, i64 64
  %29 = load ptr, ptr %28, align 8, !tbaa !22
  %.not26 = icmp eq ptr %29, null
  br i1 %.not26, label %31, label %30

30:                                               ; preds = %27
  tail call void @_efree(ptr noundef nonnull %29) #16
  store ptr null, ptr %28, align 8, !tbaa !22
  br label %31

31:                                               ; preds = %30, %27
  %32 = getelementptr inbounds nuw i8, ptr %0, i64 40
  %33 = load ptr, ptr %32, align 8, !tbaa !20
  %.not27 = icmp eq ptr %33, null
  br i1 %.not27, label %47, label %34

34:                                               ; preds = %31
  %35 = getelementptr inbounds nuw i8, ptr %33, i64 4
  %36 = load i32, ptr %35, align 4, !tbaa !13
  %37 = and i32 %36, 64
  %.not.i28 = icmp eq i32 %37, 0
  br i1 %.not.i28, label %38, label %zend_string_release.exit

38:                                               ; preds = %34
  %39 = load i32, ptr %33, align 4, !tbaa !14
  %40 = icmp ne i32 %39, 0
  tail call void @llvm.assume(i1 %40)
  %41 = add i32 %39, -1
  store i32 %41, ptr %33, align 4, !tbaa !14
  %42 = icmp eq i32 %41, 0
  br i1 %42, label %43, label %zend_string_release.exit

43:                                               ; preds = %38
  %44 = and i32 %36, 128
  %.not5.i = icmp eq i32 %44, 0
  br i1 %.not5.i, label %46, label %45

45:                                               ; preds = %43
  tail call void @free(ptr noundef nonnull %33) #16
  br label %zend_string_release.exit

46:                                               ; preds = %43
  tail call void @_efree(ptr noundef nonnull %33) #16
  br label %zend_string_release.exit

zend_string_release.exit:                         ; preds = %34, %38, %45, %46
  store ptr null, ptr %32, align 8, !tbaa !20
  br label %47

47:                                               ; preds = %zend_string_release.exit, %31
  ret void
}